Certificate:
    Data:
        Version: 3 (0x2)
        Serial Number: 4096 (0x1000)
    Signature Algorithm: sha256WithRSAEncryption
        Issuer: C=AU, ST=Some-State, O=Internet Widgits Pty Ltd, CN=seedlabs
        Validity
            Not Before: Sep  4 23:11:44 2018 GMT
            Not After : Sep  4 23:11:44 2019 GMT
        Subject: C=AU, ST=Some-State, O=Internet Widgits Pty Ltd, CN=bandaru.com
        Subject Public Key Info:
            Public Key Algorithm: rsaEncryption
                Public-Key: (2048 bit)
                Modulus:
                    00:dd:d8:f8:f6:f6:97:c7:22:25:fd:d4:11:5c:c8:
                    9d:55:f2:7c:0e:05:e2:1d:81:78:0b:21:fc:2d:19:
                    1b:fe:4e:17:72:a3:d4:f0:08:2f:4a:ef:0c:b4:c7:
                    2c:f9:06:17:22:ed:2f:08:3e:13:d7:25:27:c9:cb:
                    fa:b7:4c:23:0d:97:8d:0e:10:bd:bb:81:e5:57:40:
                    d0:d0:2a:10:1c:82:41:41:76:76:07:d0:a6:0c:9f:
                    34:52:67:39:75:b2:43:32:f4:53:e6:bd:f6:5f:90:
                    d8:c5:2e:f0:c4:e6:7d:89:8a:6c:30:f6:63:61:6d:
                    10:a4:61:da:c8:e8:e8:fc:06:a1:76:8f:99:9d:2c:
                    8a:9e:ae:e3:05:29:9a:a7:60:fc:c3:46:bb:b8:c0:
                    ac:3a:bf:5f:79:de:50:13:f7:37:6b:9d:e9:fe:64:
                    40:b1:c4:1b:55:46:b0:8c:68:a3:15:29:f4:6d:55:
                    18:d7:e6:07:fd:c6:01:c8:41:56:64:9a:12:1a:a5:
                    05:22:ae:15:b0:85:4f:5d:3e:29:dd:3a:c9:7d:10:
                    ff:10:a4:ab:6a:81:e5:bb:05:5d:17:1c:87:03:02:
                    71:f3:36:63:9e:43:9e:06:b5:25:08:33:d6:f1:67:
                    a0:4b:35:1e:ad:bc:55:3e:61:cb:ab:bd:56:d4:61:
                    75:c7
                Exponent: 65537 (0x10001)
        X509v3 extensions:
            X509v3 Basic Constraints: 
                CA:FALSE
            Netscape Comment: 
                OpenSSL Generated Certificate
            X509v3 Subject Key Identifier: 
                40:CD:B1:62:DE:16:3C:9C:40:70:8A:B6:A8:34:9E:D5:1E:97:25:58
            X509v3 Authority Key Identifier: 
                keyid:EB:C9:99:1B:17:E7:F2:38:7B:12:96:C3:0B:78:4D:A6:D4:97:CC:76

    Signature Algorithm: sha256WithRSAEncryption
         d4:d4:1d:36:a2:e4:d9:e4:41:48:25:06:76:cd:51:d0:5a:90:
         79:ca:0d:d0:bc:cc:96:20:13:54:3b:ff:79:09:b5:a4:e7:ba:
         cb:ce:94:eb:be:ba:eb:d2:82:e6:e5:5b:2a:de:1a:77:41:e9:
         74:81:1e:b2:b5:33:ce:ac:d2:e3:b8:8d:b7:3d:30:6a:46:df:
         df:78:29:f4:cf:7e:ba:35:84:81:94:8a:ee:63:31:b0:b7:c7:
         5a:aa:f2:a1:f4:3d:ad:20:f5:5e:09:39:f0:5c:d7:d6:78:e2:
         e3:d5:bc:03:21:e4:5b:cf:6c:1b:86:2e:17:22:0b:08:a9:45:
         5f:06:2b:84:7c:82:11:ba:47:d8:26:a0:d9:3d:35:79:e9:7a:
         61:cd:61:12:be:5b:62:40:5e:8f:9b:c2:f3:4b:93:41:eb:b5:
         a3:63:f4:3a:bc:42:33:ad:af:60:b2:f9:11:40:91:f2:bf:b7:
         80:8e:90:3f:f6:ab:3a:d0:bd:60:f5:69:6f:08:19:63:13:58:
         94:f7:72:5c:1b:8b:79:a5:1c:aa:e0:5b:61:5c:a0:fe:81:df:
         97:ea:f7:32:39:8c:cf:e1:85:b1:cf:85:be:60:10:2d:97:11:
         fd:79:a8:4c:e2:83:70:5c:24:e4:e1:95:15:61:c9:6d:c2:c2:
         8d:14:cd:a0:e9:2c:b9:9d:9b:bd:49:6a:6d:5c:5e:25:a7:63:
         0b:8c:88:86:e8:f4:66:f4:47:7a:bb:d5:d6:86:21:0f:a7:ba:
         b5:47:9e:be:0c:9f:6e:06:2d:09:2a:e5:b4:ad:b9:54:81:eb:
         62:ec:50:b9:6b:92:eb:c8:a7:ff:52:9d:21:fa:6e:ef:90:72:
         04:dd:3e:27:c8:bf:cf:42:33:26:10:dc:ed:21:0a:bc:4e:a7:
         be:bc:14:40:9a:f3:6e:44:4d:2b:2c:ab:60:a6:d9:e4:56:14:
         1e:eb:89:3f:4e:9a:5d:56:68:84:ef:a3:e3:65:f9:50:36:66:
         40:92:10:2b:78:28:3a:5e:76:a3:99:15:2c:c6:03:0e:b0:23:
         e4:6d:f6:26:9a:f4:9d:27:84:3a:bf:d1:a3:72:a0:b7:bb:66:
         31:4f:34:13:6c:d7:41:a4:b7:67:32:b4:34:01:f4:03:1f:50:
         48:3a:f5:4b:ef:e7:ed:eb:ee:9a:0c:db:18:52:8b:5d:f9:61:
         08:bc:78:58:88:5a:6c:82:4b:eb:dd:1b:ff:c7:d2:36:b6:4c:
         22:75:53:46:e6:3a:ec:89:8c:8b:03:14:e2:32:e9:ba:0c:02:
         04:09:e8:f1:c7:8f:3e:b7:ea:3a:42:7f:ae:ae:37:53:ce:53:
         9d:91:3b:36:c3:91:f7:32
-----BEGIN CERTIFICATE-----
MIIEqjCCApKgAwIBAgICEAAwDQYJKoZIhvcNAQELBQAwWDELMAkGA1UEBhMCQVUx
EzARBgNVBAgMClNvbWUtU3RhdGUxITAfBgNVBAoMGEludGVybmV0IFdpZGdpdHMg
UHR5IEx0ZDERMA8GA1UEAwwIc2VlZGxhYnMwHhcNMTgwOTA0MjMxMTQ0WhcNMTkw
OTA0MjMxMTQ0WjBbMQswCQYDVQQGEwJBVTETMBEGA1UECAwKU29tZS1TdGF0ZTEh
MB8GA1UECgwYSW50ZXJuZXQgV2lkZ2l0cyBQdHkgTHRkMRQwEgYDVQQDDAtiYW5k
YXJ1LmNvbTCCASIwDQYJKoZIhvcNAQEBBQADggEPADCCAQoCggEBAN3Y+Pb2l8ci
Jf3UEVzInVXyfA4F4h2BeAsh/C0ZG/5OF3Kj1PAIL0rvDLTHLPkGFyLtLwg+E9cl
J8nL+rdMIw2XjQ4QvbuB5VdA0NAqEByCQUF2dgfQpgyfNFJnOXWyQzL0U+a99l+Q
2MUu8MTmfYmKbDD2Y2FtEKRh2sjo6PwGoXaPmZ0sip6u4wUpmqdg/MNGu7jArDq/
X3neUBP3N2ud6f5kQLHEG1VGsIxooxUp9G1VGNfmB/3GAchBVmSaEhqlBSKuFbCF
T10+Kd06yX0Q/xCkq2qB5bsFXRcchwMCcfM2Y55Dnga1JQgz1vFnoEs1Hq28VT5h
y6u9VtRhdccCAwEAAaN7MHkwCQYDVR0TBAIwADAsBglghkgBhvhCAQ0EHxYdT3Bl
blNTTCBHZW5lcmF0ZWQgQ2VydGlmaWNhdGUwHQYDVR0OBBYEFEDNsWLeFjycQHCK
tqg0ntUelyVYMB8GA1UdIwQYMBaAFOvJmRsX5/I4exKWwwt4TabUl8x2MA0GCSqG
SIb3DQEBCwUAA4ICAQDU1B02ouTZ5EFIJQZ2zVHQWpB5yg3QvMyWIBNUO/95CbWk
57rLzpTrvrrr0oLm5Vsq3hp3Qel0gR6ytTPOrNLjuI23PTBqRt/feCn0z366NYSB
lIruYzGwt8daqvKh9D2tIPVeCTnwXNfWeOLj1bwDIeRbz2wbhi4XIgsIqUVfBiuE
fIIRukfYJqDZPTV56XphzWESvltiQF6Pm8LzS5NB67WjY/Q6vEIzra9gsvkRQJHy
v7eAjpA/9qs60L1g9WlvCBljE1iU93JcG4t5pRyq4FthXKD+gd+X6vcyOYzP4YWx
z4W+YBAtlxH9eahM4oNwXCTk4ZUVYcltwsKNFM2g6Sy5nZu9SWptXF4lp2MLjIiG
6PRm9Ed6u9XWhiEPp7q1R56+DJ9uBi0JKuW0rblUgeti7FC5a5LryKf/Up0h+m7v
kHIE3T4nyL/PQjMmENztIQq8Tqe+vBRAmvNuRE0rLKtgptnkVhQe64k/TppdVmiE
76PjZflQNmZAkhAreCg6XnajmRUsxgMOsCPkbfYmmvSdJ4Q6v9GjcqC3u2YxTzQT
bNdBpLdnMrQ0AfQDH1BIOvVL7+ft6+6aDNsYUotd+WEIvHhYiFpsgkvr3Rv/x9I2
tkwidVNG5jrsiYyLAxTiMum6DAIECejxx48+t+o6Qn+urjdTzlOdkTs2w5H3Mg==
-----END CERTIFICATE-----
